target datalayout = "e-m:e-p270:32:32-p271:32:32-p272:64:64-i64:64-i128:128-f80:128-n8:16:32:64-S128"
target triple = "x86_64-pc-linux-gnu"

%"struct.duckdb::CompressionState" = type { ptr, %"class.duckdb::CompressionInfo" }
%"class.duckdb::CompressionInfo" = type { i64 }
%"struct.duckdb::string_t" = type { %union.anon.29 }
%union.anon.29 = type { %struct.anon }
%struct.anon = type { i32, [4 x i8], ptr }
%"struct.duckdb::DictionaryAnalyzeState" = type <{ %"class.duckdb::DictionaryCompressionState", i64, i64, i64, i64, %"class.duckdb::StringHeap", %"class.std::unordered_set", i8, i8, [6 x i8] }>
%"class.duckdb::DictionaryCompressionState" = type { %"struct.duckdb::CompressionState" }
%"class.duckdb::StringHeap" = type { %"class.duckdb::ArenaAllocator" }
%"class.duckdb::ArenaAllocator" = type { ptr, i64, %"class.duckdb::unique_ptr.33", ptr, %"class.duckdb::Allocator", i64 }
%"class.duckdb::unique_ptr.33" = type { %"class.std::unique_ptr.34" }
%"class.std::unique_ptr.34" = type { %"struct.std::__uniq_ptr_data.35" }
%"struct.std::__uniq_ptr_data.35" = type { %"class.std::__uniq_ptr_impl.36" }
%"class.std::__uniq_ptr_impl.36" = type { %"class.std::tuple.37" }
%"class.std::tuple.37" = type { %"struct.std::_Tuple_impl.38" }
%"struct.std::_Tuple_impl.38" = type { %"struct.std::_Head_base.41" }
%"struct.std::_Head_base.41" = type { ptr }
%"class.duckdb::Allocator" = type { ptr, ptr, ptr, %"class.duckdb::unique_ptr.42" }
%"class.duckdb::unique_ptr.42" = type { %"class.std::unique_ptr.43" }
%"class.std::unique_ptr.43" = type { %"struct.std::__uniq_ptr_data.44" }
%"struct.std::__uniq_ptr_data.44" = type { %"class.std::__uniq_ptr_impl.45" }
%"class.std::__uniq_ptr_impl.45" = type { %"class.std::tuple.46" }
%"class.std::tuple.46" = type { %"struct.std::_Tuple_impl.47" }
%"struct.std::_Tuple_impl.47" = type { %"struct.std::_Head_base.50" }
%"struct.std::_Head_base.50" = type { ptr }
%"class.std::unordered_set" = type { %"class.std::_Hashtable" }
%"class.std::_Hashtable" = type { ptr, i64, %"struct.std::__detail::_Hash_node_base", i64, %"struct.std::__detail::_Prime_rehash_policy", ptr }
%"struct.std::__detail::_Hash_node_base" = type { ptr }
%"struct.std::__detail::_Prime_rehash_policy" = type { float, i64 }
%"struct.std::__detail::_Node_iterator_base" = type { ptr }
%"struct.std::__detail::_Node_const_iterator" = type { %"struct.std::__detail::_Node_iterator_base" }

; Function Attrs: mustprogress uwtable
define linkonce_odr noundef i64 @_ZNKSt10_HashtableIN6duckdb8string_tES1_SaIS1_ENSt8__detail9_IdentityENS0_14StringEqualityENS0_10StringHashENS3_18_Mod_range_hashingENS3_20_Default_ranged_hashENS3_20_Prime_rehash_policyENS3_17_Hashtable_traitsILb1ELb1ELb1EEEE5countERKS1_(ptr noundef nonnull align 8 dereferenceable(56) %0, ptr noundef nonnull align 8 dereferenceable(16) %1) #0 comdat align 2 {
  %3 = alloca i64, align 8
  %4 = alloca ptr, align 8
  %5 = alloca ptr, align 8
  %6 = alloca %"struct.std::__detail::_Node_const_iterator", align 8
  %7 = alloca i32, align 4
  store ptr %0, ptr %4, align 8, !tbaa !325
  store ptr %1, ptr %5, align 8, !tbaa !81
  %8 = load ptr, ptr %4, align 8
  call void @llvm.lifetime.start.p0(i64 8, ptr %6) #19
  %9 = load ptr, ptr %5, align 8, !tbaa !81
  %10 = call ptr @_ZNKSt10_HashtableIN6duckdb8string_tES1_SaIS1_ENSt8__detail9_IdentityENS0_14StringEqualityENS0_10StringHashENS3_18_Mod_range_hashingENS3_20_Default_ranged_hashENS3_20_Prime_rehash_policyENS3_17_Hashtable_traitsILb1ELb1ELb1EEEE4findERKS1_(ptr noundef nonnull align 8 dereferenceable(56) %8, ptr noundef nonnull align 8 dereferenceable(16) %9)
  %11 = getelementptr inbounds nuw %"struct.std::__detail::_Node_const_iterator", ptr %6, i32 0, i32 0
  %12 = getelementptr inbounds nuw %"struct.std::__detail::_Node_iterator_base", ptr %11, i32 0, i32 0
  store ptr %10, ptr %12, align 8
  %13 = getelementptr inbounds nuw %"struct.std::__detail::_Node_iterator_base", ptr %6, i32 0, i32 0
  %14 = load ptr, ptr %13, align 8, !tbaa !496
  %15 = icmp ne ptr %14, null
  br i1 %15, label %17, label %16

16:                                               ; preds = %2
  store i64 0, ptr %3, align 8
  store i32 1, ptr %7, align 4
  br label %18

17:                                               ; preds = %2
  store i64 1, ptr %3, align 8
  store i32 1, ptr %7, align 4
  br label %18

18:                                               ; preds = %17, %16
  call void @llvm.lifetime.end.p0(i64 8, ptr %6) #19
  %19 = load i64, ptr %3, align 8
  ret i64 %19
}

; Function Attrs: mustprogress uwtable
define linkonce_odr noundef i64 @_ZNKSt13unordered_setIN6duckdb8string_tENS0_10StringHashENS0_14StringEqualityESaIS1_EE5countERKS1_(ptr noundef nonnull align 8 dereferenceable(56) %0, ptr noundef nonnull align 8 dereferenceable(16) %1) #0 comdat align 2 {
  %3 = alloca ptr, align 8
  %4 = alloca ptr, align 8
  store ptr %0, ptr %3, align 8, !tbaa !157
  store ptr %1, ptr %4, align 8, !tbaa !81
  %5 = load ptr, ptr %3, align 8
  %6 = getelementptr inbounds nuw %"class.std::unordered_set", ptr %5, i32 0, i32 0
  %7 = load ptr, ptr %4, align 8, !tbaa !81
  %8 = call noundef i64 @_ZNKSt10_HashtableIN6duckdb8string_tES1_SaIS1_ENSt8__detail9_IdentityENS0_14StringEqualityENS0_10StringHashENS3_18_Mod_range_hashingENS3_20_Default_ranged_hashENS3_20_Prime_rehash_policyENS3_17_Hashtable_traitsILb1ELb1ELb1EEEE5countERKS1_(ptr noundef nonnull align 8 dereferenceable(56) %6, ptr noundef nonnull align 8 dereferenceable(16) %7)
  ret i64 %8
}

; Function Attrs: mustprogress uwtable
define noundef zeroext i1 @_ZN6duckdb22DictionaryAnalyzeState12LookupStringENS_8string_tE(ptr noundef nonnull align 8 dereferenceable(178) %0, i64 %1, ptr %2) unnamed_addr #0 align 2 {
  %4 = alloca %"struct.duckdb::string_t", align 8
  %5 = alloca ptr, align 8
  %6 = getelementptr inbounds nuw { i64, ptr }, ptr %4, i32 0, i32 0
  store i64 %1, ptr %6, align 8
  %7 = getelementptr inbounds nuw { i64, ptr }, ptr %4, i32 0, i32 1
  store ptr %2, ptr %7, align 8
  store ptr %0, ptr %5, align 8, !tbaa !120
  %8 = load ptr, ptr %5, align 8
  %9 = getelementptr inbounds nuw %"struct.duckdb::DictionaryAnalyzeState", ptr %8, i32 0, i32 6
  %10 = call noundef i64 @_ZNKSt13unordered_setIN6duckdb8string_tENS0_10StringHashENS0_14StringEqualityESaIS1_EE5countERKS1_(ptr noundef nonnull align 8 dereferenceable(56) %9, ptr noundef nonnull align 8 dereferenceable(16) %4)
  %11 = icmp ne i64 %10, 0
  ret i1 %11
}