; Function Attrs: mustprogress uwtable
define noundef zeroext i1 @_ZN6duckdb22DictionaryAnalyzeState12LookupStringENS_8string_tE(ptr noundef nonnull align 8 dereferenceable(178) %0, i64 %1, ptr %2) unnamed_addr #0 align 2 {
  %4 = alloca %"struct.duckdb::string_t", align 8
  store i64 %1, ptr %4, align 8
  %5 = getelementptr inbounds nuw i8, ptr %4, i64 8
  store ptr %2, ptr %5, align 8
  %6 = getelementptr inbounds nuw i8, ptr %0, i64 120
  %7 = call ptr @_ZNKSt10_HashtableIN6duckdb8string_tES1_SaIS1_ENSt8__detail9_IdentityENS0_14StringEqualityENS0_10StringHashENS3_18_Mod_range_hashingENS3_20_Default_ranged_hashENS3_20_Prime_rehash_policyENS3_17_Hashtable_traitsILb1ELb1ELb1EEEE4findERKS1_(ptr noundef nonnull align 8 dereferenceable(56) %6, ptr noundef nonnull align 8 dereferenceable(16) %4)
  %.not.i.i = icmp ne ptr %7, null
  ret i1 %.not.i.i
}